; Function Attrs: nounwind sspstrong uwtable
define internal fastcc noundef i64 @register_static_symid_str(i64 noundef returned %0, i64 noundef %1) unnamed_addr #0 {
  %3 = alloca i32, align 4
  %4 = alloca i32, align 4
  %5 = icmp ugt i64 %0, 170
  %6 = lshr i64 %0, 4
  %.0.in.i = select i1 %5, i64 %6, i64 %0
  tail call void @rb_obj_freeze_inline(i64 noundef %1) #19
  %7 = tail call i64 @rb_fstring(i64 noundef %1) #19
  %8 = load i16, ptr @ruby_symbol__create_semaphore, align 2, !tbaa !65
  %.not = icmp eq i16 %8, 0
  br i1 %.not, label %17, label %9, !prof !28

9:                                                ; preds = %2
  call void @llvm.lifetime.start.p0(i64 4, ptr nonnull %3) #19
  %10 = call ptr @rb_source_location_cstr(ptr noundef nonnull %3) #19
  %.not14 = icmp eq ptr %10, null
  %spec.store.select = select i1 %.not14, ptr @.str.13, ptr %10
  call void asm sideeffect "", "*m,~{dirflag},~{fpsr},~{flags}"(ptr nonnull elementtype(i16) @ruby_symbol__create_semaphore) #19, !srcloc !99
  %11 = inttoptr i64 %7 to ptr
  %12 = load i64, ptr %11, align 8, !tbaa !26, !noalias !100
  %13 = and i64 %12, 8192
  %.not.i.i = icmp eq i64 %13, 0
  %14 = getelementptr inbounds nuw i8, ptr %11, i64 24
  br i1 %.not.i.i, label %RSTRING_PTR.exit, label %15

15:                                               ; preds = %9
  %.sroa.2.0.copyload.i = load ptr, ptr %14, align 8
  br label %RSTRING_PTR.exit

RSTRING_PTR.exit:                                 ; preds = %9, %15
  %.sroa.2.0.i = phi ptr [ %.sroa.2.0.copyload.i, %15 ], [ %14, %9 ]
  %16 = load i32, ptr %3, align 4, !tbaa !44
  call void asm sideeffect ".altmacro\0A.macro _SDT_SIGN x\0A.pushsection .note.stapsdt,\22\22,\22note\22\0A.iflt \\x\0A.ascii \22-\22\0A.endif\0A.popsection\0A.endm\0A.macro _SDT_SIZE_ x\0A.pushsection .note.stapsdt,\22\22,\22note\22\0A.ascii \22\\x\22\0A.popsection\0A.endm\0A.macro _SDT_SIZE x\0A_SDT_SIZE_ %((-(-\\x*((-\\x>0)-(-\\x<0))))>>8)\0A.endm\0A.macro _SDT_TYPE_ x\0A.pushsection .note.stapsdt,\22\22,\22note\22\0A.ifc 8,\\x\0A.ascii \22f\22\0A.endif\0A.ascii \22@\22\0A.popsection\0A.endm\0A.macro _SDT_TYPE x\0A_SDT_TYPE_ %((\\x)&(0xff))\0A.endm\0A990: nop\0A.pushsection .note.stapsdt,\22?\22,\22note\22\0A.balign 4\0A.4byte 992f-991f,994f-993f,3\0A991: .asciz \22stapsdt\22\0A992: .balign 4\0A993: .8byte 990b\0A.8byte _.stapsdt.base\0A.8byte ruby_symbol__create_semaphore\0A.asciz \22ruby\22\0A.asciz \22symbol__create\22\0A_SDT_SIGN ${0:n}\0A_SDT_SIZE ${0:n}\0A_SDT_TYPE ${0:n}\0A.ascii \22$1\22\0A.ascii \22\\x20\22\0A_SDT_SIGN ${2:n}\0A_SDT_SIZE ${2:n}\0A_SDT_TYPE ${2:n}\0A.ascii \22$3\22\0A.ascii \22\\x20\22\0A_SDT_SIGN ${4:n}\0A_SDT_SIZE ${4:n}\0A_SDT_TYPE ${4:n}\0A.ascii \22$5\22\0A.ascii \22\\x00\22\0A.purgem _SDT_SIGN\0A.purgem _SDT_SIZE_\0A.purgem _SDT_SIZE\0A.purgem _SDT_TYPE_\0A.purgem _SDT_TYPE\0A994: .balign 4\0A.popsection\0A", "n,norfxy,n,norfxy,n,norfxy,~{dirflag},~{fpsr},~{flags}"(i32 -2053, ptr %.sroa.2.0.i, i32 -2053, ptr nonnull %spec.store.select, i32 1025, i32 %16) #19, !srcloc !103
  call void asm sideeffect ".ifndef _.stapsdt.base\0A.pushsection .stapsdt.base,\22aG\22,\22progbits\22,.stapsdt.base,comdat\0A.weak _.stapsdt.base\0A.hidden _.stapsdt.base\0A_.stapsdt.base: .space 1\0A.size _.stapsdt.base,1\0A.popsection\0A.endif\0A", "~{dirflag},~{fpsr},~{flags}"() #19, !srcloc !104
  call void @llvm.lifetime.end.p0(i64 4, ptr nonnull %3) #19
  br label %17

17:                                               ; preds = %RSTRING_PTR.exit, %2
  %18 = shl i64 %0, 8
  %19 = or disjoint i64 %18, 12
  call void @llvm.lifetime.start.p0(i64 4, ptr nonnull %4) #19
  %20 = load ptr, ptr @ruby_single_main_ractor, align 8, !tbaa !24
  %.not.i.i15 = icmp eq ptr %20, null
  br i1 %.not.i.i15, label %21, label %rb_vm_lock_enter.exit

21:                                               ; preds = %17
  call void @rb_vm_lock_enter_body(ptr noundef nonnull %4) #19
  br label %rb_vm_lock_enter.exit

rb_vm_lock_enter.exit:                            ; preds = %17, %21
  %22 = load ptr, ptr getelementptr inbounds nuw (i8, ptr @ruby_global_symbols, i64 8), align 8, !tbaa !15
  call void @rb_st_add_direct(ptr noundef %22, i64 noundef %7, i64 noundef %19) #19
  %23 = lshr i64 %.0.in.i, 9
  %24 = and i64 %23, 8388607
  %25 = load i64, ptr getelementptr inbounds nuw (i8, ptr @ruby_global_symbols, i64 16), align 8, !tbaa !16
  %26 = inttoptr i64 %25 to ptr
  %27 = load i64, ptr %26, align 8, !tbaa !26
  %28 = and i64 %27, 8192
  %.not.i.i16 = icmp eq i64 %28, 0
  br i1 %.not.i.i16, label %32, label %29

29:                                               ; preds = %rb_vm_lock_enter.exit
  %30 = lshr i64 %27, 15
  %31 = and i64 %30, 127
  br label %rb_array_len.exit.i

32:                                               ; preds = %rb_vm_lock_enter.exit
  %33 = getelementptr inbounds nuw i8, ptr %26, i64 16
  %34 = load i64, ptr %33, align 8, !tbaa !17
  br label %rb_array_len.exit.i

rb_array_len.exit.i:                              ; preds = %32, %29
  %.0.i.i = phi i64 [ %31, %29 ], [ %34, %32 ]
  %.not.i = icmp ugt i64 %.0.i.i, %24
  br i1 %.not.i, label %35, label %38

35:                                               ; preds = %rb_array_len.exit.i
  %36 = call i64 @rb_ary_entry(i64 noundef %25, i64 noundef %24) #21
  %37 = icmp eq i64 %36, 4
  br i1 %37, label %38, label %set_id_entry.exit

38:                                               ; preds = %35, %rb_array_len.exit.i
  %39 = call i64 @rb_ary_hidden_new(i64 noundef 1024) #19
  call void @rb_ary_store(i64 noundef %25, i64 noundef %24, i64 noundef %39) #19
  br label %set_id_entry.exit

set_id_entry.exit:                                ; preds = %35, %38
  %.0.i17 = phi i64 [ %39, %38 ], [ %36, %35 ]
  %40 = shl nuw nsw i64 %.0.in.i, 1
  %41 = and i64 %40, 1022
  call void @rb_ary_store(i64 noundef %.0.i17, i64 noundef %41, i64 noundef %7) #19
  %42 = or disjoint i64 %41, 1
  call void @rb_ary_store(i64 noundef %.0.i17, i64 noundef %42, i64 noundef %19) #19
  %43 = load ptr, ptr @ruby_single_main_ractor, align 8, !tbaa !24
  %.not.i.i18 = icmp eq ptr %43, null
  br i1 %.not.i.i18, label %44, label %rb_vm_lock_leave.exit

44:                                               ; preds = %set_id_entry.exit
  call void @rb_vm_lock_leave_body(ptr noundef nonnull %4) #19
  br label %rb_vm_lock_leave.exit

rb_vm_lock_leave.exit:                            ; preds = %set_id_entry.exit, %44
  call void @llvm.lifetime.end.p0(i64 4, ptr nonnull %4) #19
  ret i64 %0
}